; Function Attrs: nounwind uwtable
define internal i32 @fold_kfold_conv_kint_i64(ptr noundef %0) #0 {
  %2 = getelementptr inbounds nuw i8, ptr %0, i64 186
  %3 = load i16, ptr %2, align 2, !tbaa !28
  %4 = and i16 %3, 2048
  %.not = icmp eq i16 %4, 0
  %5 = getelementptr inbounds nuw i8, ptr %0, i64 192
  %6 = load i32, ptr %5, align 8, !tbaa !28
  %7 = zext i32 %6 to i64
  %8 = sext i32 %6 to i64
  %.sink = select i1 %.not, i64 %7, i64 %8
  %9 = tail call i32 @lj_ir_kint64(ptr noundef nonnull %0, i64 noundef %.sink) #12
  ret i32 %9
}